; Function Attrs: mustprogress nofree norecurse nosync nounwind willreturn memory(read, inaccessiblemem: none) uwtable
define hidden noundef ptr @_ZNK3sls12bv_lookahead15root_assertionsdeEv(ptr noundef nonnull readonly align 8 captures(none) dereferenceable(12) %0) local_unnamed_addr #7 align 2 {
  %2 = load ptr, ptr %0, align 8, !tbaa !225
  %3 = getelementptr inbounds nuw i8, ptr %2, i64 144
  %4 = load i8, ptr %3, align 8, !tbaa !163, !range !94, !noundef !95
  %5 = trunc nuw i8 %4 to i1
  %6 = getelementptr inbounds nuw i8, ptr %2, i64 32
  %7 = load ptr, ptr %6, align 8, !tbaa !92
  br i1 %5, label %8, label %13

8:                                                ; preds = %1
  %9 = getelementptr inbounds nuw i8, ptr %0, i64 8
  %10 = load i32, ptr %9, align 8, !tbaa !228
  %11 = getelementptr inbounds nuw i8, ptr %7, i64 168
  %12 = load ptr, ptr %11, align 8, !tbaa !132
  br label %_ZN3sls7context4atomEj.exit.sink.split

13:                                               ; preds = %1
  %14 = getelementptr inbounds nuw i8, ptr %7, i64 80
  %15 = load ptr, ptr %14, align 8, !tbaa !132
  %16 = icmp eq ptr %15, null
  br i1 %16, label %_ZN3sls7context4atomEj.exit, label %_ZNK6vectorIP4exprLb0EjE3getEjRKS1_.exit.i.i

_ZNK6vectorIP4exprLb0EjE3getEjRKS1_.exit.i.i:     ; preds = %13
  %17 = getelementptr inbounds nuw i8, ptr %7, i64 112
  %18 = load ptr, ptr %17, align 8, !tbaa !169
  %19 = getelementptr inbounds nuw i8, ptr %0, i64 8
  %20 = load i32, ptr %19, align 8, !tbaa !228
  %21 = zext i32 %20 to i64
  %22 = getelementptr inbounds nuw %"class.sat::literal", ptr %18, i64 %21
  %23 = load i32, ptr %22, align 4, !tbaa !171
  %24 = lshr i32 %23, 1
  %25 = getelementptr inbounds i8, ptr %15, i64 -4
  %26 = load i32, ptr %25, align 4, !tbaa !133
  %.not.i.i.i = icmp ult i32 %24, %26
  br i1 %.not.i.i.i, label %_ZN3sls7context4atomEj.exit.sink.split, label %_ZN3sls7context4atomEj.exit

_ZN3sls7context4atomEj.exit.sink.split:           ; preds = %_ZNK6vectorIP4exprLb0EjE3getEjRKS1_.exit.i.i, %8
  %.sink = phi i32 [ %10, %8 ], [ %24, %_ZNK6vectorIP4exprLb0EjE3getEjRKS1_.exit.i.i ]
  %.sink2 = phi ptr [ %12, %8 ], [ %15, %_ZNK6vectorIP4exprLb0EjE3getEjRKS1_.exit.i.i ]
  %27 = zext i32 %.sink to i64
  %28 = getelementptr inbounds nuw ptr, ptr %.sink2, i64 %27
  %.then.val.i.i = load ptr, ptr %28, align 8, !tbaa !134
  br label %_ZN3sls7context4atomEj.exit

_ZN3sls7context4atomEj.exit:                      ; preds = %_ZN3sls7context4atomEj.exit.sink.split, %_ZNK6vectorIP4exprLb0EjE3getEjRKS1_.exit.i.i, %13
  %.0 = phi ptr [ null, %_ZNK6vectorIP4exprLb0EjE3getEjRKS1_.exit.i.i ], [ null, %13 ], [ %.then.val.i.i, %_ZN3sls7context4atomEj.exit.sink.split ]
  ret ptr %.0
}